target datalayout = "e-m:e-p270:32:32-p271:32:32-p272:64:64-i64:64-i128:128-f80:128-n8:16:32:64-S128"
target triple = "x86_64-pc-linux-gnu"

%struct.SlabContext = type { %struct.MemoryContextData, i32, i32, i32, i32, i32, i32, %struct.dclist_head, [3 x %struct.dlist_head] }
%struct.MemoryContextData = type { i32, i8, i8, i64, ptr, ptr, ptr, ptr, ptr, ptr, ptr, ptr }
%struct.dclist_head = type { %struct.dlist_head, i32 }
%struct.dlist_head = type { %struct.dlist_node }
%struct.dlist_node = type { ptr, ptr }

@.str = private unnamed_addr constant [57 x i8] c"block size %zu for slab is too small for %zu-byte chunks\00", align 1
@.str.1 = private unnamed_addr constant [7 x i8] c"slab.c\00", align 1
@__func__.SlabContextCreate = private unnamed_addr constant [18 x i8] c"SlabContextCreate\00", align 1
@TopMemoryContext = external global ptr, align 8
@.str.2 = private unnamed_addr constant [14 x i8] c"out of memory\00", align 1
@.str.3 = private unnamed_addr constant [43 x i8] c"Failed while creating memory context \22%s\22.\00", align 1

; Function Attrs: inlinehint nounwind uwtable
define internal void @dlist_init(ptr noundef %0) #5 {
  %2 = alloca ptr, align 8
  store ptr %0, ptr %2, align 8
  %3 = load ptr, ptr %2, align 8
  %4 = getelementptr inbounds nuw %struct.dlist_head, ptr %3, i32 0, i32 0
  %5 = load ptr, ptr %2, align 8
  %6 = getelementptr inbounds nuw %struct.dlist_head, ptr %5, i32 0, i32 0
  %7 = getelementptr inbounds nuw %struct.dlist_node, ptr %6, i32 0, i32 0
  store ptr %4, ptr %7, align 8
  %8 = load ptr, ptr %2, align 8
  %9 = getelementptr inbounds nuw %struct.dlist_head, ptr %8, i32 0, i32 0
  %10 = getelementptr inbounds nuw %struct.dlist_node, ptr %9, i32 0, i32 1
  store ptr %4, ptr %10, align 8
  ret void
}

; Function Attrs: inlinehint nounwind uwtable
define internal void @dclist_init(ptr noundef %0) #5 {
  %2 = alloca ptr, align 8
  store ptr %0, ptr %2, align 8
  %3 = load ptr, ptr %2, align 8
  %4 = getelementptr inbounds nuw %struct.dclist_head, ptr %3, i32 0, i32 0
  call void @dlist_init(ptr noundef %4)
  %5 = load ptr, ptr %2, align 8
  %6 = getelementptr inbounds nuw %struct.dclist_head, ptr %5, i32 0, i32 1
  store i32 0, ptr %6, align 8
  ret void
}

; Function Attrs: nounwind uwtable
define dso_local ptr @SlabContextCreate(ptr noundef %0, ptr noundef %1, i64 noundef %2, i64 noundef %3) #0 {
  %5 = alloca ptr, align 8
  %6 = alloca ptr, align 8
  %7 = alloca i64, align 8
  %8 = alloca i64, align 8
  %9 = alloca i32, align 4
  %10 = alloca i64, align 8
  %11 = alloca ptr, align 8
  %12 = alloca i32, align 4
  store ptr %0, ptr %5, align 8
  store ptr %1, ptr %6, align 8
  store i64 %2, ptr %7, align 8
  store i64 %3, ptr %8, align 8
  call void @llvm.lifetime.start.p0(i64 4, ptr %9) #10
  call void @llvm.lifetime.start.p0(i64 8, ptr %10) #10
  call void @llvm.lifetime.start.p0(i64 8, ptr %11) #10
  call void @llvm.lifetime.start.p0(i64 4, ptr %12) #10
  %13 = load i64, ptr %8, align 8
  %14 = icmp ult i64 %13, 8
  br i1 %14, label %15, label %16

15:                                               ; preds = %4
  store i64 8, ptr %8, align 8
  br label %16

16:                                               ; preds = %15, %4
  %17 = load i64, ptr %8, align 8
  %18 = add i64 %17, 7
  %19 = and i64 %18, -8
  %20 = add i64 8, %19
  store i64 %20, ptr %10, align 8
  %21 = load i64, ptr %7, align 8
  %22 = sub i64 %21, 48
  %23 = load i64, ptr %10, align 8
  %24 = udiv i64 %22, %23
  %25 = trunc i64 %24 to i32
  store i32 %25, ptr %9, align 4
  %26 = load i32, ptr %9, align 4
  %27 = icmp eq i32 %26, 0
  br i1 %27, label %28, label %41

28:                                               ; preds = %16
  br label %29

29:                                               ; preds = %28
  br i1 true, label %30, label %32

30:                                               ; preds = %29
  %31 = call zeroext i1 @errstart_cold(i32 noundef 21, ptr noundef null) #11
  br i1 %31, label %34, label %38

32:                                               ; preds = %29
  %33 = call zeroext i1 @errstart(i32 noundef 21, ptr noundef null)
  br i1 %33, label %34, label %38

34:                                               ; preds = %32, %30
  %35 = load i64, ptr %7, align 8
  %36 = load i64, ptr %8, align 8
  %37 = call i32 (ptr, ...) @errmsg_internal(ptr noundef @.str, i64 noundef %35, i64 noundef %36)
  call void @errfinish(ptr noundef @.str.1, i32 noundef 360, ptr noundef @__func__.SlabContextCreate)
  br label %38

38:                                               ; preds = %34, %32, %30
  unreachable

39:                                               ; No predecessors!
  br label %40

40:                                               ; preds = %39
  br label %41

41:                                               ; preds = %40, %16
  %42 = call noalias ptr @malloc(i64 noundef 176) #12
  store ptr %42, ptr %11, align 8
  %43 = load ptr, ptr %11, align 8
  %44 = icmp eq ptr %43, null
  br i1 %44, label %45, label %60

45:                                               ; preds = %41
  %46 = load ptr, ptr @TopMemoryContext, align 8
  call void @MemoryContextStats(ptr noundef %46)
  br label %47

47:                                               ; preds = %45
  br i1 true, label %48, label %50

48:                                               ; preds = %47
  %49 = call zeroext i1 @errstart_cold(i32 noundef 21, ptr noundef null) #11
  br i1 %49, label %52, label %57

50:                                               ; preds = %47
  %51 = call zeroext i1 @errstart(i32 noundef 21, ptr noundef null)
  br i1 %51, label %52, label %57

52:                                               ; preds = %50, %48
  %53 = call i32 @errcode(i32 noundef 8389)
  %54 = call i32 (ptr, ...) @errmsg(ptr noundef @.str.2)
  %55 = load ptr, ptr %6, align 8
  %56 = call i32 (ptr, ...) @errdetail(ptr noundef @.str.3, ptr noundef %55)
  call void @errfinish(ptr noundef @.str.1, i32 noundef 372, ptr noundef @__func__.SlabContextCreate)
  br label %57

57:                                               ; preds = %52, %50, %48
  unreachable

58:                                               ; No predecessors!
  br label %59

59:                                               ; preds = %58
  br label %60

60:                                               ; preds = %59, %41
  %61 = load i64, ptr %8, align 8
  %62 = trunc i64 %61 to i32
  %63 = load ptr, ptr %11, align 8
  %64 = getelementptr inbounds nuw %struct.SlabContext, ptr %63, i32 0, i32 1
  store i32 %62, ptr %64, align 8
  %65 = load i64, ptr %10, align 8
  %66 = trunc i64 %65 to i32
  %67 = load ptr, ptr %11, align 8
  %68 = getelementptr inbounds nuw %struct.SlabContext, ptr %67, i32 0, i32 2
  store i32 %66, ptr %68, align 4
  %69 = load i64, ptr %7, align 8
  %70 = trunc i64 %69 to i32
  %71 = load ptr, ptr %11, align 8
  %72 = getelementptr inbounds nuw %struct.SlabContext, ptr %71, i32 0, i32 3
  store i32 %70, ptr %72, align 8
  %73 = load i32, ptr %9, align 4
  %74 = load ptr, ptr %11, align 8
  %75 = getelementptr inbounds nuw %struct.SlabContext, ptr %74, i32 0, i32 4
  store i32 %73, ptr %75, align 4
  %76 = load ptr, ptr %11, align 8
  %77 = getelementptr inbounds nuw %struct.SlabContext, ptr %76, i32 0, i32 5
  store i32 0, ptr %77, align 8
  %78 = load ptr, ptr %11, align 8
  %79 = getelementptr inbounds nuw %struct.SlabContext, ptr %78, i32 0, i32 6
  store i32 0, ptr %79, align 4
  br label %80

80:                                               ; preds = %89, %60
  %81 = load ptr, ptr %11, align 8
  %82 = getelementptr inbounds nuw %struct.SlabContext, ptr %81, i32 0, i32 4
  %83 = load i32, ptr %82, align 4
  %84 = load ptr, ptr %11, align 8
  %85 = getelementptr inbounds nuw %struct.SlabContext, ptr %84, i32 0, i32 6
  %86 = load i32, ptr %85, align 4
  %87 = ashr i32 %83, %86
  %88 = icmp sge i32 %87, 2
  br i1 %88, label %89, label %94

89:                                               ; preds = %80
  %90 = load ptr, ptr %11, align 8
  %91 = getelementptr inbounds nuw %struct.SlabContext, ptr %90, i32 0, i32 6
  %92 = load i32, ptr %91, align 4
  %93 = add i32 %92, 1
  store i32 %93, ptr %91, align 4
  br label %80, !llvm.loop !4

94:                                               ; preds = %80
  %95 = load ptr, ptr %11, align 8
  %96 = getelementptr inbounds nuw %struct.SlabContext, ptr %95, i32 0, i32 7
  call void @dclist_init(ptr noundef %96)
  store i32 0, ptr %12, align 4
  br label %97

97:                                               ; preds = %106, %94
  %98 = load i32, ptr %12, align 4
  %99 = icmp slt i32 %98, 3
  br i1 %99, label %100, label %109

100:                                              ; preds = %97
  %101 = load ptr, ptr %11, align 8
  %102 = getelementptr inbounds nuw %struct.SlabContext, ptr %101, i32 0, i32 8
  %103 = load i32, ptr %12, align 4
  %104 = sext i32 %103 to i64
  %105 = getelementptr inbounds [3 x %struct.dlist_head], ptr %102, i64 0, i64 %104
  call void @dlist_init(ptr noundef %105)
  br label %106

106:                                              ; preds = %100
  %107 = load i32, ptr %12, align 4
  %108 = add i32 %107, 1
  store i32 %108, ptr %12, align 4
  br label %97, !llvm.loop !6

109:                                              ; preds = %97
  %110 = load ptr, ptr %11, align 8
  %111 = load ptr, ptr %5, align 8
  %112 = load ptr, ptr %6, align 8
  call void @MemoryContextCreate(ptr noundef %110, i32 noundef 475, i32 noundef 5, ptr noundef %111, ptr noundef %112)
  %113 = load ptr, ptr %11, align 8
  call void @llvm.lifetime.end.p0(i64 4, ptr %12) #10
  call void @llvm.lifetime.end.p0(i64 8, ptr %11) #10
  call void @llvm.lifetime.end.p0(i64 8, ptr %10) #10
  call void @llvm.lifetime.end.p0(i64 4, ptr %9) #10
  ret ptr %113
}