; Function Attrs: nounwind uwtable
define dso_local nonnull ptr @SlabContextCreate(ptr noundef %0, ptr noundef %1, i64 noundef %2, i64 noundef %3) local_unnamed_addr #0 {
  %spec.store.select = tail call i64 @llvm.umax.i64(i64 %3, i64 8)
  %5 = add i64 %spec.store.select, 7
  %6 = and i64 %5, -8
  %7 = add i64 %6, 8
  %8 = add i64 %2, -48
  %9 = udiv i64 %8, %7
  %10 = trunc i64 %9 to i32
  %11 = icmp eq i32 %10, 0
  br i1 %11, label %12, label %15

12:                                               ; preds = %4
  %13 = tail call zeroext i1 @errstart_cold(i32 noundef 21, ptr noundef null) #12
  tail call void @llvm.assume(i1 %13)
  %14 = tail call i32 (ptr, ...) @errmsg_internal(ptr noundef nonnull @.str, i64 noundef %2, i64 noundef %spec.store.select) #13
  tail call void @errfinish(ptr noundef nonnull @.str.1, i32 noundef 360, ptr noundef nonnull @__func__.SlabContextCreate) #13
  unreachable

15:                                               ; preds = %4
  %16 = tail call noalias dereferenceable_or_null(176) ptr @malloc(i64 noundef 176) #14
  %17 = icmp eq ptr %16, null
  br i1 %17, label %18, label %24

18:                                               ; preds = %15
  %19 = load ptr, ptr @TopMemoryContext, align 8
  tail call void @MemoryContextStats(ptr noundef %19) #13
  %20 = tail call zeroext i1 @errstart_cold(i32 noundef 21, ptr noundef null) #12
  tail call void @llvm.assume(i1 %20)
  %21 = tail call i32 @errcode(i32 noundef 8389) #13
  %22 = tail call i32 (ptr, ...) @errmsg(ptr noundef nonnull @.str.2) #13
  %23 = tail call i32 (ptr, ...) @errdetail(ptr noundef nonnull @.str.3, ptr noundef %1) #13
  tail call void @errfinish(ptr noundef nonnull @.str.1, i32 noundef 372, ptr noundef nonnull @__func__.SlabContextCreate) #13
  unreachable

24:                                               ; preds = %15
  %25 = trunc i64 %spec.store.select to i32
  %26 = getelementptr inbounds nuw i8, ptr %16, i64 80
  store i32 %25, ptr %26, align 8
  %27 = trunc i64 %7 to i32
  %28 = getelementptr inbounds nuw i8, ptr %16, i64 84
  store i32 %27, ptr %28, align 4
  %29 = trunc i64 %2 to i32
  %30 = getelementptr inbounds nuw i8, ptr %16, i64 88
  store i32 %29, ptr %30, align 8
  %31 = getelementptr inbounds nuw i8, ptr %16, i64 92
  store i32 %10, ptr %31, align 4
  %32 = getelementptr inbounds nuw i8, ptr %16, i64 96
  store i32 0, ptr %32, align 8
  br label %33

33:                                               ; preds = %33, %24
  %storemerge = phi i32 [ 0, %24 ], [ %36, %33 ]
  %34 = ashr i32 %10, %storemerge
  %35 = icmp sgt i32 %34, 1
  %36 = add i32 %storemerge, 1
  br i1 %35, label %33, label %37, !llvm.loop !4

37:                                               ; preds = %33
  %38 = getelementptr inbounds nuw i8, ptr %16, i64 100
  store i32 %storemerge, ptr %38, align 4
  %39 = getelementptr inbounds nuw i8, ptr %16, i64 104
  store ptr %39, ptr %39, align 8
  %40 = getelementptr inbounds nuw i8, ptr %16, i64 112
  store ptr %39, ptr %40, align 8
  %41 = getelementptr inbounds nuw i8, ptr %16, i64 120
  store i32 0, ptr %41, align 8
  %42 = getelementptr inbounds nuw i8, ptr %16, i64 128
  br label %43

43:                                               ; preds = %37, %43
  %indvars.iv = phi i64 [ 0, %37 ], [ %indvars.iv.next, %43 ]
  %44 = getelementptr inbounds nuw [3 x %struct.dlist_head], ptr %42, i64 0, i64 %indvars.iv
  store ptr %44, ptr %44, align 8
  %45 = getelementptr inbounds nuw i8, ptr %44, i64 8
  store ptr %44, ptr %45, align 8
  %indvars.iv.next = add nuw nsw i64 %indvars.iv, 1
  %exitcond.not = icmp eq i64 %indvars.iv.next, 3
  br i1 %exitcond.not, label %46, label %43, !llvm.loop !6

46:                                               ; preds = %43
  tail call void @MemoryContextCreate(ptr noundef nonnull %16, i32 noundef 475, i32 noundef 5, ptr noundef %0, ptr noundef %1) #13
  ret ptr %16
}